target datalayout = "e-m:e-p270:32:32-p271:32:32-p272:64:64-i64:64-i128:128-f80:128-n8:16:32:64-S128"
target triple = "x86_64-pc-linux-gnu"

%struct.WarpedMotionParams = type { [8 x i32], i16, i16, i16, i16, i8, i8 }
%struct.AV1Decoder = type { %struct.DecoderCodingBlock, %struct.AV1Common, %struct.AVxWorker, %struct.AV1LfSyncData, %struct.AV1LrSyncData, %struct.AV1LrStruct, ptr, i32, ptr, [16 x i8], %struct.ThreadData, ptr, i32, [64 x [64 x %struct.TileBufferDec]], %struct.AV1DecTileMTData, i32, [4 x ptr], i64, i32, i32, i32, i32, i32, i32, i32, i32, i32, i32, i32, i32, i32, i32, i32, i32, i32, i64, %struct.DataBuffer, i32, i32, i32, i32, i32, i32, %struct.EXTERNAL_REFERENCES, %struct.yv12_buffer_config, ptr, i32, i32, ptr, ptr, %struct.AV1DecRowMTInfo, ptr, i32, i32, i32, i32, [8 x i32], i32, i32, i32, %struct.aom_s_frame_info, [28 x i8] }
%struct.DecoderCodingBlock = type { %struct.macroblockd, i32, [2 x ptr], [3 x ptr], [3 x i16], [3 x ptr], [3 x i16], [29 x i8], [29 x i8] }
%struct.macroblockd = type { i32, i32, i32, i8, [3 x %struct.macroblockd_plane], %struct.TileInfo, ptr, i8, i8, i8, i8, ptr, ptr, ptr, ptr, ptr, i32, i32, i32, i32, i32, [2 x ptr], ptr, [3 x ptr], [3 x [32 x i8]], ptr, [32 x i8], ptr, ptr, [32 x i8], [3 x %struct.WienerInfo], [3 x %struct.SgrprojInfo], i8, i8, [29 x [8 x %struct.candidate_mv]], [29 x [8 x i16]], i8, i8, [8 x i8], ptr, i32, [8 x i32], [8 x i32], i32, i32, ptr, ptr, i8, [4 x i8], [4 x i8], [7 x i8], [32768 x i8], %struct.cfl_ctx, [2 x i16], ptr, [2 x ptr] }
%struct.macroblockd_plane = type { i8, i32, i32, %struct.buf_2d, [2 x %struct.buf_2d], ptr, ptr, [8 x [2 x i16]], ptr, i8, i8, [8 x [19 x ptr]], [8 x [19 x ptr]] }
%struct.buf_2d = type { ptr, ptr, i32, i32, i32 }
%struct.TileInfo = type { i32, i32, i32, i32, i32, i32 }
%struct.WienerInfo = type { [8 x i16], [8 x i16] }
%struct.SgrprojInfo = type { i32, [2 x i32] }
%struct.candidate_mv = type { %union.int_mv, %union.int_mv }
%union.int_mv = type { i32 }
%struct.cfl_ctx = type { [1024 x i16], [1024 x i16], [2 x i32], i32, [2 x [32 x i16]], i32, i32, i32, i32, i32, i32 }
%struct.AV1Common = type { %struct.CurrentFrame, %struct.aom_internal_error_info, i32, i32, i32, i32, i32, i32, i8, i8, [33 x i32], i32, ptr, ptr, [8 x i32], %struct.scale_factors, [8 x %struct.scale_factors], [8 x ptr], i32, i32, i32, %struct.FeatureFlags, %struct.CommonModeInfoParams, %struct.CommonQuantParams, %struct.segmentation, ptr, [8 x i8], %struct.loop_filter_info_n, %struct.loopfilter, [3 x %struct.RestorationInfo], ptr, ptr, %struct.yv12_buffer_config, %struct.CdefInfo, %struct.aom_film_grain_t, %struct.DeltaQInfo, [8 x %struct.WarpedMotionParams], %struct.SequenceHeader, ptr, ptr, %struct.CommonTileParams, ptr, %struct.CommonContexts, i32, [8 x i32], ptr, i32, [8 x i32], [8 x i8], i32, i32, i32, i32 }
%struct.CurrentFrame = type { i8, i8, i32, i32, i32, %struct.SkipModeInfo, i32, i32 }
%struct.SkipModeInfo = type { i32, i32, i32, i32 }
%struct.aom_internal_error_info = type { i32, i32, [200 x i8], i32, [1 x %struct.__jmp_buf_tag] }
%struct.__jmp_buf_tag = type { [8 x i64], i32, %struct.__sigset_t }
%struct.__sigset_t = type { [16 x i64] }
%struct.scale_factors = type { i32, i32, i32, i32, ptr, ptr }
%struct.FeatureFlags = type { i8, i8, i8, i8, i8, i8, i8, i8, i8, i8, i8, i8, i8, i8, i32, i32, i8 }
%struct.CommonModeInfoParams = type { i32, i32, i32, i32, i32, ptr, i32, i32, i8, ptr, i32, i32, ptr, ptr, ptr, ptr }
%struct.CommonQuantParams = type { i32, i32, i32, i32, i32, i32, [8 x [2 x i16]], [8 x [2 x i16]], [8 x [2 x i16]], [16 x [3 x [19 x ptr]]], [16 x [3 x [19 x ptr]]], [8 x [19 x ptr]], [8 x [19 x ptr]], [8 x [19 x ptr]], i8, i32, i32, i32 }
%struct.segmentation = type { i8, i8, i8, i8, [8 x [8 x i16]], [8 x i32], i32, i8 }
%struct.loop_filter_info_n = type { [64 x %struct.loop_filter_thresh], [3 x [8 x [2 x [8 x [2 x i8]]]]] }
%struct.loop_filter_thresh = type { [16 x i8], [16 x i8], [16 x i8] }
%struct.loopfilter = type { [2 x i32], i32, i32, i32, i8, i8, [8 x i8], [2 x i8], i32 }
%struct.RestorationInfo = type { i32, i32, i32, i32, i32, ptr, %struct.RestorationStripeBoundaries, i32 }
%struct.RestorationStripeBoundaries = type { ptr, ptr, i32, i32 }
%struct.CdefInfo = type { i32, i32, [16 x i32], [16 x i32], i32 }
%struct.aom_film_grain_t = type { i32, i32, [14 x [2 x i32]], i32, [10 x [2 x i32]], i32, [10 x [2 x i32]], i32, i32, i32, [24 x i32], [25 x i32], [25 x i32], i32, i32, i32, i32, i32, i32, i32, i32, i32, i32, i32, i32, i16 }
%struct.DeltaQInfo = type { i32, i32, i32, i32, i32 }
%struct.SequenceHeader = type { i32, i32, i32, i32, i8, i32, i32, i8, i32, i32, %struct.OrderHintInfo, i8, i8, i8, i8, i8, i8, i8, i8, i8, i8, i8, i8, i8, i8, i32, i8, i8, i32, i32, i32, i32, i32, i32, i32, i8, i8, i32, [32 x i32], i32, %struct.aom_timing, i8, %struct.aom_dec_model_info, i8, [32 x i8], [32 x i8], [33 x %struct.aom_dec_model_op_parameters] }
%struct.OrderHintInfo = type { i32, i32, i32, i32 }
%struct.aom_timing = type { i32, i32, i32, i32 }
%struct.aom_dec_model_info = type { i32, i32, i32, i32 }
%struct.aom_dec_model_op_parameters = type { i32, i64, i64, i32, i32, i32, i32, i32 }
%struct.CommonTileParams = type { i32, i32, i32, i32, i32, i32, i32, i32, i32, i32, i32, i32, i32, i32, i32, [65 x i32], [65 x i32], i32, i32 }
%struct.CommonContexts = type { ptr, [3 x ptr], ptr, i32, i32, i32 }
%struct.AVxWorker = type { ptr, i32, ptr, ptr, ptr, ptr, i32 }
%struct.AV1LfSyncData = type { [3 x ptr], [3 x ptr], [3 x ptr], i32, i32, ptr, i32, ptr, ptr, i32, i32 }
%struct.AV1LrSyncData = type { [3 x ptr], [3 x ptr], [3 x ptr], i32, i32, i32, i32, ptr, ptr, ptr, i32, i32 }
%struct.AV1LrStruct = type { ptr, [3 x %struct.FilterFrameCtxt], ptr, ptr }
%struct.FilterFrameCtxt = type { ptr, i32, i32, i32, i32, i32, ptr, ptr, i32, i32, %struct.AV1PixelRect }
%struct.AV1PixelRect = type { i32, i32, i32, i32 }
%struct.ThreadData = type { %struct.DecoderCodingBlock, %struct.CB_BUFFER, ptr, [2 x ptr], i32, i32, ptr, [2 x ptr], ptr, ptr, ptr, ptr, ptr, ptr, [24 x i8] }
%struct.CB_BUFFER = type { [3 x [16384 x i32]], [3 x [1024 x %struct.eob_info]], [2 x [16384 x i8]] }
%struct.eob_info = type { i16, i16 }
%struct.TileBufferDec = type { ptr, i64 }
%struct.AV1DecTileMTData = type { ptr, ptr, i32, i32, i32, i32 }
%struct.DataBuffer = type { ptr, i64 }
%struct.EXTERNAL_REFERENCES = type { [128 x %struct.yv12_buffer_config], i32 }
%struct.yv12_buffer_config = type { %union.anon, %union.anon.0, %union.anon.2, %union.anon.4, %union.anon.6, %union.anon.8, i32, [3 x ptr], ptr, i32, ptr, i64, i32, i64, i32, i32, i32, i32, i32, i32, i8, i32, i32, i32, i32, i32, i32, ptr }
%union.anon = type { %struct.anon }
%struct.anon = type { i32, i32 }
%union.anon.0 = type { %struct.anon.1 }
%struct.anon.1 = type { i32, i32 }
%union.anon.2 = type { %struct.anon.3 }
%struct.anon.3 = type { i32, i32 }
%union.anon.4 = type { %struct.anon.5 }
%struct.anon.5 = type { i32, i32 }
%union.anon.6 = type { %struct.anon.7 }
%struct.anon.7 = type { i32, i32 }
%union.anon.8 = type { %struct.anon.9 }
%struct.anon.9 = type { ptr, ptr, ptr }
%struct.AV1DecRowMTInfo = type { i32, i32, i32, i32, i32, i32, i32, i32, i32, i32 }
%struct.aom_s_frame_info = type { i32, i32 }

@.str.56 = private unnamed_addr constant [38 x i8] c"Truncated packet or corrupt tile size\00", align 1
@.str.57 = private unnamed_addr constant [39 x i8] c"Data ended before all tiles were read.\00", align 1
@.str.58 = private unnamed_addr constant [34 x i8] c"Not enough data to read tile size\00", align 1

; Function Attrs: nounwind uwtable
define internal i32 @mem_get_le32_as_int(ptr noundef %0) #0 {
  %2 = alloca ptr, align 8
  %3 = alloca i32, align 4
  %4 = alloca ptr, align 8
  store ptr %0, ptr %2, align 8
  %5 = load ptr, ptr %2, align 8
  store ptr %5, ptr %4, align 8
  %6 = load ptr, ptr %4, align 8
  %7 = getelementptr inbounds i8, ptr %6, i64 3
  %8 = load i8, ptr %7, align 1
  %9 = zext i8 %8 to i32
  %10 = shl i32 %9, 24
  store i32 %10, ptr %3, align 4
  %11 = load ptr, ptr %4, align 8
  %12 = getelementptr inbounds i8, ptr %11, i64 2
  %13 = load i8, ptr %12, align 1
  %14 = zext i8 %13 to i32
  %15 = shl i32 %14, 16
  %16 = load i32, ptr %3, align 4
  %17 = or i32 %16, %15
  store i32 %17, ptr %3, align 4
  %18 = load ptr, ptr %4, align 8
  %19 = getelementptr inbounds i8, ptr %18, i64 1
  %20 = load i8, ptr %19, align 1
  %21 = zext i8 %20 to i32
  %22 = shl i32 %21, 8
  %23 = load i32, ptr %3, align 4
  %24 = or i32 %23, %22
  store i32 %24, ptr %3, align 4
  %25 = load ptr, ptr %4, align 8
  %26 = getelementptr inbounds i8, ptr %25, i64 0
  %27 = load i8, ptr %26, align 1
  %28 = zext i8 %27 to i32
  %29 = load i32, ptr %3, align 4
  %30 = or i32 %29, %28
  store i32 %30, ptr %3, align 4
  %31 = load i32, ptr %3, align 4
  ret i32 %31
}

; Function Attrs: nounwind uwtable
define internal i32 @mem_get_le24_as_int(ptr noundef %0) #0 {
  %2 = alloca ptr, align 8
  %3 = alloca i32, align 4
  %4 = alloca ptr, align 8
  store ptr %0, ptr %2, align 8
  %5 = load ptr, ptr %2, align 8
  store ptr %5, ptr %4, align 8
  %6 = load ptr, ptr %4, align 8
  %7 = getelementptr inbounds i8, ptr %6, i64 2
  %8 = load i8, ptr %7, align 1
  %9 = zext i8 %8 to i32
  %10 = shl i32 %9, 16
  store i32 %10, ptr %3, align 4
  %11 = load ptr, ptr %4, align 8
  %12 = getelementptr inbounds i8, ptr %11, i64 1
  %13 = load i8, ptr %12, align 1
  %14 = zext i8 %13 to i32
  %15 = shl i32 %14, 8
  %16 = load i32, ptr %3, align 4
  %17 = or i32 %16, %15
  store i32 %17, ptr %3, align 4
  %18 = load ptr, ptr %4, align 8
  %19 = getelementptr inbounds i8, ptr %18, i64 0
  %20 = load i8, ptr %19, align 1
  %21 = zext i8 %20 to i32
  %22 = load i32, ptr %3, align 4
  %23 = or i32 %22, %21
  store i32 %23, ptr %3, align 4
  %24 = load i32, ptr %3, align 4
  ret i32 %24
}

; Function Attrs: nounwind uwtable
define internal i32 @mem_get_le16_as_int(ptr noundef %0) #0 {
  %2 = alloca ptr, align 8
  %3 = alloca i32, align 4
  %4 = alloca ptr, align 8
  store ptr %0, ptr %2, align 8
  %5 = load ptr, ptr %2, align 8
  store ptr %5, ptr %4, align 8
  %6 = load ptr, ptr %4, align 8
  %7 = getelementptr inbounds i8, ptr %6, i64 1
  %8 = load i8, ptr %7, align 1
  %9 = zext i8 %8 to i32
  %10 = shl i32 %9, 8
  store i32 %10, ptr %3, align 4
  %11 = load ptr, ptr %4, align 8
  %12 = getelementptr inbounds i8, ptr %11, i64 0
  %13 = load i8, ptr %12, align 1
  %14 = zext i8 %13 to i32
  %15 = load i32, ptr %3, align 4
  %16 = or i32 %15, %14
  store i32 %16, ptr %3, align 4
  %17 = load i32, ptr %3, align 4
  ret i32 %17
}

; Function Attrs: nounwind uwtable
define internal i64 @mem_get_varsize(ptr noundef %0, i32 noundef %1) #0 {
  %3 = alloca i64, align 8
  %4 = alloca ptr, align 8
  %5 = alloca i32, align 4
  store ptr %0, ptr %4, align 8
  store i32 %1, ptr %5, align 4
  %6 = load i32, ptr %5, align 4
  switch i32 %6, label %24 [
    i32 1, label %7
    i32 2, label %12
    i32 3, label %16
    i32 4, label %20
  ]

7:                                                ; preds = %2
  %8 = load ptr, ptr %4, align 8
  %9 = getelementptr inbounds i8, ptr %8, i64 0
  %10 = load i8, ptr %9, align 1
  %11 = zext i8 %10 to i64
  store i64 %11, ptr %3, align 8
  br label %25

12:                                               ; preds = %2
  %13 = load ptr, ptr %4, align 8
  %14 = call i32 @mem_get_le16_as_int(ptr noundef %13)
  %15 = zext i32 %14 to i64
  store i64 %15, ptr %3, align 8
  br label %25

16:                                               ; preds = %2
  %17 = load ptr, ptr %4, align 8
  %18 = call i32 @mem_get_le24_as_int(ptr noundef %17)
  %19 = zext i32 %18 to i64
  store i64 %19, ptr %3, align 8
  br label %25

20:                                               ; preds = %2
  %21 = load ptr, ptr %4, align 8
  %22 = call i32 @mem_get_le32_as_int(ptr noundef %21)
  %23 = zext i32 %22 to i64
  store i64 %23, ptr %3, align 8
  br label %25

24:                                               ; preds = %2
  store i64 -1, ptr %3, align 8
  br label %25

25:                                               ; preds = %24, %20, %16, %12, %7
  %26 = load i64, ptr %3, align 8
  ret i64 %26
}

; Function Attrs: nounwind uwtable
define internal i32 @read_is_valid(ptr noundef %0, i64 noundef %1, ptr noundef %2) #0 {
  %4 = alloca ptr, align 8
  %5 = alloca i64, align 8
  %6 = alloca ptr, align 8
  store ptr %0, ptr %4, align 8
  store i64 %1, ptr %5, align 8
  store ptr %2, ptr %6, align 8
  %7 = load i64, ptr %5, align 8
  %8 = icmp ne i64 %7, 0
  br i1 %8, label %9, label %17

9:                                                ; preds = %3
  %10 = load i64, ptr %5, align 8
  %11 = load ptr, ptr %6, align 8
  %12 = load ptr, ptr %4, align 8
  %13 = ptrtoint ptr %11 to i64
  %14 = ptrtoint ptr %12 to i64
  %15 = sub i64 %13, %14
  %16 = icmp ule i64 %10, %15
  br label %17

17:                                               ; preds = %9, %3
  %18 = phi i1 [ false, %3 ], [ %16, %9 ]
  %19 = zext i1 %18 to i32
  ret i32 %19
}

; Function Attrs: nounwind uwtable
define internal void @get_tile_buffer(ptr noundef %0, i32 noundef %1, i32 noundef %2, ptr noundef %3, ptr noundef %4, ptr noundef %5) #0 {
  %7 = alloca ptr, align 8
  %8 = alloca i32, align 4
  %9 = alloca i32, align 4
  %10 = alloca ptr, align 8
  %11 = alloca ptr, align 8
  %12 = alloca ptr, align 8
  %13 = alloca i64, align 8
  store ptr %0, ptr %7, align 8
  store i32 %1, ptr %8, align 4
  store i32 %2, ptr %9, align 4
  store ptr %3, ptr %10, align 8
  store ptr %4, ptr %11, align 8
  store ptr %5, ptr %12, align 8
  %14 = load i32, ptr %9, align 4
  %15 = icmp ne i32 %14, 0
  br i1 %15, label %48, label %16

16:                                               ; preds = %6
  %17 = load ptr, ptr %11, align 8
  %18 = load ptr, ptr %17, align 8
  %19 = load i32, ptr %8, align 4
  %20 = sext i32 %19 to i64
  %21 = load ptr, ptr %7, align 8
  %22 = call i32 @read_is_valid(ptr noundef %18, i64 noundef %20, ptr noundef %21)
  %23 = icmp ne i32 %22, 0
  br i1 %23, label %26, label %24

24:                                               ; preds = %16
  %25 = load ptr, ptr %10, align 8
  call void (ptr, i32, ptr, ...) @aom_internal_error(ptr noundef %25, i32 noundef 7, ptr noundef @.str.58)
  br label %26

26:                                               ; preds = %24, %16
  %27 = load ptr, ptr %11, align 8
  %28 = load ptr, ptr %27, align 8
  %29 = load i32, ptr %8, align 4
  %30 = call i64 @mem_get_varsize(ptr noundef %28, i32 noundef %29)
  %31 = add i64 %30, 1
  store i64 %31, ptr %13, align 8
  %32 = load i32, ptr %8, align 4
  %33 = load ptr, ptr %11, align 8
  %34 = load ptr, ptr %33, align 8
  %35 = sext i32 %32 to i64
  %36 = getelementptr inbounds i8, ptr %34, i64 %35
  store ptr %36, ptr %33, align 8
  %37 = load i64, ptr %13, align 8
  %38 = load ptr, ptr %7, align 8
  %39 = load ptr, ptr %11, align 8
  %40 = load ptr, ptr %39, align 8
  %41 = ptrtoint ptr %38 to i64
  %42 = ptrtoint ptr %40 to i64
  %43 = sub i64 %41, %42
  %44 = icmp ugt i64 %37, %43
  br i1 %44, label %45, label %47

45:                                               ; preds = %26
  %46 = load ptr, ptr %10, align 8
  call void (ptr, i32, ptr, ...) @aom_internal_error(ptr noundef %46, i32 noundef 7, ptr noundef @.str.56)
  br label %47

47:                                               ; preds = %45, %26
  br label %55

48:                                               ; preds = %6
  %49 = load ptr, ptr %7, align 8
  %50 = load ptr, ptr %11, align 8
  %51 = load ptr, ptr %50, align 8
  %52 = ptrtoint ptr %49 to i64
  %53 = ptrtoint ptr %51 to i64
  %54 = sub i64 %52, %53
  store i64 %54, ptr %13, align 8
  br label %55

55:                                               ; preds = %48, %47
  %56 = load ptr, ptr %11, align 8
  %57 = load ptr, ptr %56, align 8
  %58 = load ptr, ptr %12, align 8
  %59 = getelementptr inbounds nuw %struct.TileBufferDec, ptr %58, i32 0, i32 0
  store ptr %57, ptr %59, align 8
  %60 = load i64, ptr %13, align 8
  %61 = load ptr, ptr %12, align 8
  %62 = getelementptr inbounds nuw %struct.TileBufferDec, ptr %61, i32 0, i32 1
  store i64 %60, ptr %62, align 8
  %63 = load i64, ptr %13, align 8
  %64 = load ptr, ptr %11, align 8
  %65 = load ptr, ptr %64, align 8
  %66 = getelementptr inbounds i8, ptr %65, i64 %63
  store ptr %66, ptr %64, align 8
  ret void
}

; Function Attrs: nounwind uwtable
define internal void @get_tile_buffers(ptr noundef %0, ptr noundef %1, ptr noundef %2, ptr noundef %3, i32 noundef %4, i32 noundef %5) #0 {
  %7 = alloca ptr, align 8
  %8 = alloca ptr, align 8
  %9 = alloca ptr, align 8
  %10 = alloca ptr, align 8
  %11 = alloca i32, align 4
  %12 = alloca i32, align 4
  %13 = alloca ptr, align 8
  %14 = alloca i32, align 4
  %15 = alloca i32, align 4
  %16 = alloca i32, align 4
  %17 = alloca i32, align 4
  %18 = alloca i32, align 4
  %19 = alloca ptr, align 8
  %20 = alloca i32, align 4
  %21 = alloca i64, align 8
  store ptr %0, ptr %7, align 8
  store ptr %1, ptr %8, align 8
  store ptr %2, ptr %9, align 8
  store ptr %3, ptr %10, align 8
  store i32 %4, ptr %11, align 4
  store i32 %5, ptr %12, align 4
  %22 = load ptr, ptr %7, align 8
  %23 = getelementptr inbounds nuw %struct.AV1Decoder, ptr %22, i32 0, i32 1
  store ptr %23, ptr %13, align 8
  %24 = load ptr, ptr %13, align 8
  %25 = getelementptr inbounds nuw %struct.AV1Common, ptr %24, i32 0, i32 40
  %26 = getelementptr inbounds nuw %struct.CommonTileParams, ptr %25, i32 0, i32 0
  %27 = load i32, ptr %26, align 16
  store i32 %27, ptr %14, align 4
  %28 = load ptr, ptr %13, align 8
  %29 = getelementptr inbounds nuw %struct.AV1Common, ptr %28, i32 0, i32 40
  %30 = getelementptr inbounds nuw %struct.CommonTileParams, ptr %29, i32 0, i32 1
  %31 = load i32, ptr %30, align 4
  store i32 %31, ptr %15, align 4
  store i32 0, ptr %16, align 4
  store i32 0, ptr %17, align 4
  br label %32

32:                                               ; preds = %87, %6
  %33 = load i32, ptr %17, align 4
  %34 = load i32, ptr %15, align 4
  %35 = icmp slt i32 %33, %34
  br i1 %35, label %36, label %90

36:                                               ; preds = %32
  store i32 0, ptr %18, align 4
  br label %37

37:                                               ; preds = %81, %36
  %38 = load i32, ptr %18, align 4
  %39 = load i32, ptr %14, align 4
  %40 = icmp slt i32 %38, %39
  br i1 %40, label %41, label %86

41:                                               ; preds = %37
  %42 = load ptr, ptr %10, align 8
  %43 = load i32, ptr %17, align 4
  %44 = sext i32 %43 to i64
  %45 = getelementptr inbounds [64 x %struct.TileBufferDec], ptr %42, i64 %44
  %46 = load i32, ptr %18, align 4
  %47 = sext i32 %46 to i64
  %48 = getelementptr inbounds [64 x %struct.TileBufferDec], ptr %45, i64 0, i64 %47
  store ptr %48, ptr %19, align 8
  %49 = load i32, ptr %16, align 4
  %50 = load i32, ptr %12, align 4
  %51 = icmp eq i32 %49, %50
  %52 = zext i1 %51 to i32
  store i32 %52, ptr %20, align 4
  store i64 0, ptr %21, align 8
  %53 = load i32, ptr %16, align 4
  %54 = load i32, ptr %11, align 4
  %55 = icmp slt i32 %53, %54
  br i1 %55, label %60, label %56

56:                                               ; preds = %41
  %57 = load i32, ptr %16, align 4
  %58 = load i32, ptr %12, align 4
  %59 = icmp sgt i32 %57, %58
  br i1 %59, label %60, label %61

60:                                               ; preds = %56, %41
  br label %81

61:                                               ; preds = %56
  %62 = load ptr, ptr %8, align 8
  %63 = getelementptr inbounds i8, ptr %62, i64 0
  %64 = load ptr, ptr %9, align 8
  %65 = icmp uge ptr %63, %64
  br i1 %65, label %66, label %69

66:                                               ; preds = %61
  %67 = load ptr, ptr %13, align 8
  %68 = getelementptr inbounds nuw %struct.AV1Common, ptr %67, i32 0, i32 1
  call void (ptr, i32, ptr, ...) @aom_internal_error(ptr noundef %68, i32 noundef 7, ptr noundef @.str.57)
  br label %69

69:                                               ; preds = %66, %61
  %70 = load ptr, ptr %8, align 8
  %71 = getelementptr inbounds i8, ptr %70, i64 0
  store ptr %71, ptr %8, align 8
  %72 = load ptr, ptr %9, align 8
  %73 = load ptr, ptr %7, align 8
  %74 = getelementptr inbounds nuw %struct.AV1Decoder, ptr %73, i32 0, i32 24
  %75 = load i32, ptr %74, align 8
  %76 = load i32, ptr %20, align 4
  %77 = load ptr, ptr %7, align 8
  %78 = getelementptr inbounds nuw %struct.AV1Decoder, ptr %77, i32 0, i32 1
  %79 = getelementptr inbounds nuw %struct.AV1Common, ptr %78, i32 0, i32 1
  %80 = load ptr, ptr %19, align 8
  call void @get_tile_buffer(ptr noundef %72, i32 noundef %75, i32 noundef %76, ptr noundef %79, ptr noundef %8, ptr noundef %80)
  br label %81

81:                                               ; preds = %69, %60
  %82 = load i32, ptr %18, align 4
  %83 = add nsw i32 %82, 1
  store i32 %83, ptr %18, align 4
  %84 = load i32, ptr %16, align 4
  %85 = add nsw i32 %84, 1
  store i32 %85, ptr %16, align 4
  br label %37, !llvm.loop !74

86:                                               ; preds = %37
  br label %87

87:                                               ; preds = %86
  %88 = load i32, ptr %17, align 4
  %89 = add nsw i32 %88, 1
  store i32 %89, ptr %17, align 4
  br label %32, !llvm.loop !75

90:                                               ; preds = %32
  ret void
}