; Function Attrs: nounwind uwtable
define internal fastcc void @get_tile_buffers(ptr noundef %0, ptr noundef %1, ptr noundef %2, ptr noundef writeonly captures(none) %3, i32 noundef range(i32 -2147483648, 2147483647) %4, i32 noundef %5) unnamed_addr #0 {
  %7 = getelementptr inbounds nuw i8, ptr %0, i64 75104
  %8 = load i32, ptr %7, align 16
  %9 = getelementptr inbounds nuw i8, ptr %0, i64 75108
  %10 = load i32, ptr %9, align 4
  %11 = icmp sgt i32 %10, 0
  br i1 %11, label %.preheader.lr.ph, label %._crit_edge39

.preheader.lr.ph:                                 ; preds = %6
  %12 = icmp sgt i32 %8, 0
  %13 = getelementptr inbounds nuw i8, ptr %0, i64 48008
  %14 = getelementptr inbounds nuw i8, ptr %0, i64 431864
  %15 = ptrtoint ptr %2 to i64
  br i1 %12, label %.preheader.us.preheader, label %._crit_edge39

.preheader.us.preheader:                          ; preds = %.preheader.lr.ph
  %wide.trip.count45 = zext nneg i32 %10 to i64
  %wide.trip.count = zext nneg i32 %8 to i64
  br label %.preheader.us

.preheader.us:                                    ; preds = %.preheader.us.preheader, %._crit_edge.us
  %indvars.iv42 = phi i64 [ 0, %.preheader.us.preheader ], [ %indvars.iv.next43, %._crit_edge.us ]
  %.038.us = phi i32 [ 0, %.preheader.us.preheader ], [ %60, %._crit_edge.us ]
  %.02936.us = phi ptr [ %1, %.preheader.us.preheader ], [ %.2.us, %._crit_edge.us ]
  br label %16

16:                                               ; preds = %.preheader.us, %58
  %indvars.iv = phi i64 [ 0, %.preheader.us ], [ %indvars.iv.next, %58 ]
  %.134.us = phi i32 [ %.038.us, %.preheader.us ], [ %59, %58 ]
  %.13032.us = phi ptr [ %.02936.us, %.preheader.us ], [ %.2.us, %58 ]
  %17 = getelementptr inbounds nuw [64 x %struct.TileBufferDec], ptr %3, i64 %indvars.iv42, i64 %indvars.iv
  %.not31.us = icmp eq i32 %.134.us, %5
  %18 = icmp slt i32 %.134.us, %4
  %19 = icmp sgt i32 %.134.us, %5
  %or.cond.us = or i1 %18, %19
  br i1 %or.cond.us, label %58, label %20

20:                                               ; preds = %16
  %.not.us = icmp ult ptr %.13032.us, %2
  br i1 %.not.us, label %22, label %21

21:                                               ; preds = %20
  tail call void (ptr, i32, ptr, ...) @aom_internal_error(ptr noundef nonnull %13, i32 noundef 7, ptr noundef nonnull @.str.57) #16
  br label %22

22:                                               ; preds = %21, %20
  %23 = load i32, ptr %14, align 8
  br i1 %.not31.us, label %53, label %24

24:                                               ; preds = %22
  %25 = sext i32 %23 to i64
  %26 = ptrtoint ptr %.13032.us to i64
  %27 = sub i64 %15, %26
  %28 = add nsw i64 %25, -1
  %narrow.i.not.i.us = icmp ult i64 %28, %27
  br i1 %narrow.i.not.i.us, label %30, label %29

29:                                               ; preds = %24
  tail call void (ptr, i32, ptr, ...) @aom_internal_error(ptr noundef nonnull %13, i32 noundef 7, ptr noundef nonnull @.str.58) #16
  br label %30

30:                                               ; preds = %29, %24
  switch i32 %23, label %mem_get_varsize.exit.i.us [
    i32 1, label %44
    i32 2, label %42
    i32 3, label %34
    i32 4, label %31
  ]

31:                                               ; preds = %30
  %32 = load i32, ptr %.13032.us, align 1
  %33 = zext i32 %32 to i64
  br label %mem_get_varsize.exit.i.us

34:                                               ; preds = %30
  %35 = getelementptr i8, ptr %.13032.us, i64 1
  %36 = load i16, ptr %35, align 1
  %37 = zext i16 %36 to i64
  %38 = shl nuw nsw i64 %37, 8
  %39 = load i8, ptr %.13032.us, align 1
  %40 = zext i8 %39 to i64
  %41 = or disjoint i64 %38, %40
  br label %mem_get_varsize.exit.i.us

42:                                               ; preds = %30
  %.val.i.i.us = load i16, ptr %.13032.us, align 1
  %43 = zext i16 %.val.i.i.us to i64
  br label %mem_get_varsize.exit.i.us

44:                                               ; preds = %30
  %45 = load i8, ptr %.13032.us, align 1
  %46 = zext i8 %45 to i64
  br label %mem_get_varsize.exit.i.us

mem_get_varsize.exit.i.us:                        ; preds = %44, %42, %34, %31, %30
  %.0.i.i.us = phi i64 [ %33, %31 ], [ %41, %34 ], [ %43, %42 ], [ %46, %44 ], [ -1, %30 ]
  %47 = add nsw i64 %.0.i.i.us, 1
  %48 = getelementptr inbounds i8, ptr %.13032.us, i64 %25
  %49 = ptrtoint ptr %48 to i64
  %50 = sub i64 %15, %49
  %51 = icmp ugt i64 %47, %50
  br i1 %51, label %52, label %get_tile_buffer.exit.us

52:                                               ; preds = %mem_get_varsize.exit.i.us
  tail call void (ptr, i32, ptr, ...) @aom_internal_error(ptr noundef nonnull %13, i32 noundef 7, ptr noundef nonnull @.str.56) #16
  br label %get_tile_buffer.exit.us

53:                                               ; preds = %22
  %54 = ptrtoint ptr %.13032.us to i64
  %55 = sub i64 %15, %54
  br label %get_tile_buffer.exit.us

get_tile_buffer.exit.us:                          ; preds = %53, %52, %mem_get_varsize.exit.i.us
  %.3.us = phi ptr [ %48, %52 ], [ %48, %mem_get_varsize.exit.i.us ], [ %.13032.us, %53 ]
  %.0.i.us = phi i64 [ %47, %52 ], [ %47, %mem_get_varsize.exit.i.us ], [ %55, %53 ]
  store ptr %.3.us, ptr %17, align 8
  %56 = getelementptr inbounds nuw i8, ptr %17, i64 8
  store i64 %.0.i.us, ptr %56, align 8
  %57 = getelementptr inbounds i8, ptr %.3.us, i64 %.0.i.us
  br label %58

58:                                               ; preds = %get_tile_buffer.exit.us, %16
  %.2.us = phi ptr [ %.13032.us, %16 ], [ %57, %get_tile_buffer.exit.us ]
  %indvars.iv.next = add nuw nsw i64 %indvars.iv, 1
  %59 = add nsw i32 %.134.us, 1
  %exitcond.not = icmp eq i64 %indvars.iv.next, %wide.trip.count
  br i1 %exitcond.not, label %._crit_edge.us, label %16, !llvm.loop !81

._crit_edge.us:                                   ; preds = %58
  %60 = add i32 %8, %.038.us
  %indvars.iv.next43 = add nuw nsw i64 %indvars.iv42, 1
  %exitcond46.not = icmp eq i64 %indvars.iv.next43, %wide.trip.count45
  br i1 %exitcond46.not, label %._crit_edge39, label %.preheader.us, !llvm.loop !82

._crit_edge39:                                    ; preds = %._crit_edge.us, %.preheader.lr.ph, %6
  ret void
}